target datalayout = "e-m:e-p270:32:32-p271:32:32-p272:64:64-i64:64-i128:128-f80:128-n8:16:32:64-S128"
target triple = "x86_64-pc-linux-gnu"

@_ZN10ODDLParser5ValueD1Ev = hidden unnamed_addr alias void (ptr), ptr @_ZN10ODDLParser5ValueD2Ev

; Function Attrs: mustprogress nounwind uwtable
define hidden void @_ZN10ODDLParser14ValueAllocator15releasePrimDataEPPNS_5ValueE(ptr noundef %0) #2 align 2 {
  %2 = alloca ptr, align 8
  store ptr %0, ptr %2, align 8
  %3 = load ptr, ptr %2, align 8
  %4 = icmp ne ptr %3, null
  br i1 %4, label %6, label %5

5:                                                ; preds = %1
  br label %13

6:                                                ; preds = %1
  %7 = load ptr, ptr %2, align 8
  %8 = load ptr, ptr %7, align 8
  %9 = icmp eq ptr %8, null
  br i1 %9, label %11, label %10

10:                                               ; preds = %6
  call void @_ZN10ODDLParser5ValueD1Ev(ptr noundef nonnull align 8 dereferenceable(32) %8) #1
  call void @_ZdlPvm(ptr noundef %8, i64 noundef 32) #17
  br label %11

11:                                               ; preds = %10, %6
  %12 = load ptr, ptr %2, align 8
  store ptr null, ptr %12, align 8
  br label %13

13:                                               ; preds = %11, %5
  ret void
}