; Function Attrs: mustprogress nounwind uwtable
define hidden void @_ZN10ODDLParser14ValueAllocator15releasePrimDataEPPNS_5ValueE(ptr noundef captures(address_is_null) %0) local_unnamed_addr #7 align 2 {
  %.not = icmp eq ptr %0, null
  br i1 %.not, label %7, label %2

2:                                                ; preds = %1
  %3 = load ptr, ptr %0, align 8
  %4 = icmp eq ptr %3, null
  br i1 %4, label %6, label %5

5:                                                ; preds = %2
  tail call void @_ZN10ODDLParser5ValueD2Ev(ptr noundef nonnull align 8 dereferenceable(32) %3) #25
  tail call void @_ZdlPvm(ptr noundef nonnull %3, i64 noundef 32) #26
  br label %6

6:                                                ; preds = %5, %2
  store ptr null, ptr %0, align 8
  br label %7

7:                                                ; preds = %1, %6
  ret void
}